; Function Attrs: mustprogress uwtable
define noundef ptr @_ZN5folly10SSLContext13getFromSSLCtxEPK10ssl_ctx_st(ptr noundef %0) local_unnamed_addr #2 align 2 personality ptr @__gxx_personality_v0 {
  %2 = load atomic i8, ptr @_ZGVZN5folly12_GLOBAL__N_114getExDataIndexEvE5index acquire, align 8
  %3 = icmp eq i8 %2, 0
  br i1 %3, label %4, label %_ZN5folly12_GLOBAL__N_114getExDataIndexEv.exit, !prof !177

4:                                                ; preds = %1
  %5 = tail call i32 @__cxa_guard_acquire(ptr nonnull @_ZGVZN5folly12_GLOBAL__N_114getExDataIndexEvE5index) #29
  %.not.i = icmp eq i32 %5, 0
  br i1 %.not.i, label %_ZN5folly12_GLOBAL__N_114getExDataIndexEv.exit, label %6

6:                                                ; preds = %4
  %7 = invoke i32 @CRYPTO_get_ex_new_index(i32 noundef 1, i64 noundef 0, ptr noundef null, ptr noundef null, ptr noundef null, ptr noundef null)
          to label %8 unwind label %9

8:                                                ; preds = %6
  store i32 %7, ptr @_ZZN5folly12_GLOBAL__N_114getExDataIndexEvE5index, align 4, !tbaa !74
  tail call void @__cxa_guard_release(ptr nonnull @_ZGVZN5folly12_GLOBAL__N_114getExDataIndexEvE5index) #29
  br label %_ZN5folly12_GLOBAL__N_114getExDataIndexEv.exit

9:                                                ; preds = %6
  %10 = landingpad { ptr, i32 }
          cleanup
  tail call void @__cxa_guard_abort(ptr nonnull @_ZGVZN5folly12_GLOBAL__N_114getExDataIndexEvE5index) #29
  resume { ptr, i32 } %10

_ZN5folly12_GLOBAL__N_114getExDataIndexEv.exit:   ; preds = %1, %4, %8
  %11 = load i32, ptr @_ZZN5folly12_GLOBAL__N_114getExDataIndexEvE5index, align 4, !tbaa !74
  %12 = tail call ptr @SSL_CTX_get_ex_data(ptr noundef %0, i32 noundef %11)
  ret ptr %12
}